; Listing generated by Microsoft (R) Optimizing Compiler Version 19.00.24215.1 

	TITLE	E:\finalUI_316latest_canuse_300ms_DB_moreliandong\motorTest1\GeneratedFiles\Release\moc_TestForm1.cpp
	.686P
	.XMM
	include listing.inc
	.model	flat

INCLUDELIB MSVCRT
INCLUDELIB OLDNAMES

EXTRN	__imp_?staticMetaObject@QWidget@@2UQMetaObject@@B:BYTE
CONST	SEGMENT
?qt_meta_stringdata_TestForm1@@3Uqt_meta_stringdata_TestForm1_t@@B DD 0ffffffffH ; qt_meta_stringdata_TestForm1
	DD	09H
	DD	00H
	DD	01a0H
	DD	0ffffffffH
	DD	0fH
	DD	00H
	DD	019aH
	DD	0ffffffffH
	DD	00H
	DD	00H
	DD	019aH
	DD	0ffffffffH
	DD	0fH
	DD	00H
	DD	018bH
	DD	0ffffffffH
	DD	0fH
	DD	00H
	DD	018bH
	DD	0ffffffffH
	DD	0fH
	DD	00H
	DD	018bH
	DD	0ffffffffH
	DD	0fH
	DD	00H
	DD	018bH
	DD	0ffffffffH
	DD	0eH
	DD	00H
	DD	018bH
	DD	0ffffffffH
	DD	0bH
	DD	00H
	DD	018aH
	DD	0ffffffffH
	DD	0dH
	DD	00H
	DD	0186H
	DD	0ffffffffH
	DD	0dH
	DD	00H
	DD	0184H
	DD	0ffffffffH
	DD	0dH
	DD	00H
	DD	0182H
	DD	0ffffffffH
	DD	0dH
	DD	00H
	DD	0180H
	DD	0ffffffffH
	DD	0dH
	DD	00H
	DD	017eH
	DD	0ffffffffH
	DD	0cH
	DD	00H
	DD	017cH
	DD	0ffffffffH
	DD	0cH
	DD	00H
	DD	0179H
	DD	0ffffffffH
	DD	0cH
	DD	00H
	DD	0176H
	DD	0ffffffffH
	DD	0cH
	DD	00H
	DD	0173H
	DD	0ffffffffH
	DD	0cH
	DD	00H
	DD	0170H
	DD	0ffffffffH
	DD	0eH
	DD	00H
	DD	016dH
	DD	0ffffffffH
	DD	014H
	DD	00H
	DD	016cH
	DD	0ffffffffH
	DD	014H
	DD	00H
	DD	0171H
	DD	0ffffffffH
	DD	0fH
	DD	00H
	DD	0176H
	DD	0ffffffffH
	DD	011H
	DD	00H
	DD	0176H
	DD	0ffffffffH
	DD	011H
	DD	00H
	DD	0178H
	DD	0ffffffffH
	DD	012H
	DD	00H
	DD	017aH
	DB	'TestForm1', 00H, 'OnbtnOpenMotor1', 00H, 00H, 'OnbtnOpen'
	DB	'Motor2', 00H, 'OnbtnOpenMotor3', 00H, 'OnbtnOpenMotor4', 00H, 'O'
	DB	'nbtnOpenMotor5', 00H, 'OnbtnSaveParam', 00H, 'OnbtnGoFrm2', 00H
	DB	'OnbtnGoRight1', 00H, 'OnbtnGoRight2', 00H, 'OnbtnGoRight3', 00H
	DB	'OnbtnGoRight4', 00H, 'OnbtnGoRight5', 00H, 'OnbtnGoLeft1', 00H
	DB	'OnbtnGoLeft2', 00H, 'OnbtnGoLeft3', 00H, 'OnbtnGoLeft4', 00H, 'O'
	DB	'nbtnGoLeft5', 00H, 'OnbtnReadInput', 00H, 'OnbtnOpenForceSens'
	DB	'or', 00H, 'OnbtnReadForceSensor', 00H, 'OnbtnPullLiqiud', 00H
	DB	'OnbtnPullLiqiud_2', 00H, 'OnbtnSetOutputLow', 00H, 'OnbtnSetO'
	DB	'utputHigh', 00H
	ORG $+3
?qt_meta_data_TestForm1@@3QBIB DD 08H			; qt_meta_data_TestForm1
	DD	00H
	DD	00H
	DD	00H
	DD	018H
	DD	0eH
	DD	00H
	DD	00H
	DD	00H
	DD	00H
	DD	00H
	DD	00H
	DD	00H
	DD	00H
	DD	01H
	DD	00H
	DD	086H
	DD	02H
	DD	08H
	DD	03H
	DD	00H
	DD	087H
	DD	02H
	DD	08H
	DD	04H
	DD	00H
	DD	088H
	DD	02H
	DD	08H
	DD	05H
	DD	00H
	DD	089H
	DD	02H
	DD	08H
	DD	06H
	DD	00H
	DD	08aH
	DD	02H
	DD	08H
	DD	07H
	DD	00H
	DD	08bH
	DD	02H
	DD	08H
	DD	08H
	DD	00H
	DD	08cH
	DD	02H
	DD	08H
	DD	09H
	DD	00H
	DD	08dH
	DD	02H
	DD	08H
	DD	0aH
	DD	00H
	DD	08eH
	DD	02H
	DD	08H
	DD	0bH
	DD	00H
	DD	08fH
	DD	02H
	DD	08H
	DD	0cH
	DD	00H
	DD	090H
	DD	02H
	DD	08H
	DD	0dH
	DD	00H
	DD	091H
	DD	02H
	DD	08H
	DD	0eH
	DD	00H
	DD	092H
	DD	02H
	DD	08H
	DD	0fH
	DD	00H
	DD	093H
	DD	02H
	DD	08H
	DD	010H
	DD	00H
	DD	094H
	DD	02H
	DD	08H
	DD	011H
	DD	00H
	DD	095H
	DD	02H
	DD	08H
	DD	012H
	DD	00H
	DD	096H
	DD	02H
	DD	08H
	DD	013H
	DD	00H
	DD	097H
	DD	02H
	DD	08H
	DD	014H
	DD	00H
	DD	098H
	DD	02H
	DD	08H
	DD	015H
	DD	00H
	DD	099H
	DD	02H
	DD	08H
	DD	016H
	DD	00H
	DD	09aH
	DD	02H
	DD	08H
	DD	017H
	DD	00H
	DD	09bH
	DD	02H
	DD	08H
	DD	018H
	DD	00H
	DD	09cH
	DD	02H
	DD	08H
	DD	019H
	DD	00H
	DD	09dH
	DD	02H
	DD	08H
	DD	02bH
	DD	02bH
	DD	02bH
	DD	02bH
	DD	02bH
	DD	02bH
	DD	02bH
	DD	02bH
	DD	02bH
	DD	02bH
	DD	02bH
	DD	02bH
	DD	02bH
	DD	02bH
	DD	02bH
	DD	02bH
	DD	02bH
	DD	02bH
	DD	02bH
	DD	02bH
	DD	02bH
	DD	02bH
	DD	02bH
	DD	02bH
	DD	00H
CONST	ENDS
PUBLIC	?metaObject@TestForm1@@UBEPBUQMetaObject@@XZ	; TestForm1::metaObject
PUBLIC	?qt_metacast@TestForm1@@UAEPAXPBD@Z		; TestForm1::qt_metacast
PUBLIC	?qt_metacall@TestForm1@@UAEHW4Call@QMetaObject@@HPAPAX@Z ; TestForm1::qt_metacall
PUBLIC	?qt_static_metacall@TestForm1@@CAXPAVQObject@@W4Call@QMetaObject@@HPAPAX@Z ; TestForm1::qt_static_metacall
PUBLIC	?staticMetaObject@TestForm1@@2UQMetaObject@@B	; TestForm1::staticMetaObject
EXTRN	__imp_?dynamicMetaObject@QObjectData@@QBEPAUQMetaObject@@XZ:PROC
EXTRN	__imp_?qt_metacast@QWidget@@UAEPAXPBD@Z:PROC
EXTRN	__imp_?qt_metacall@QWidget@@UAEHW4Call@QMetaObject@@HPAPAX@Z:PROC
EXTRN	?OnbtnOpenMotor1@TestForm1@@AAEXXZ:PROC		; TestForm1::OnbtnOpenMotor1
EXTRN	?OnbtnOpenMotor2@TestForm1@@AAEXXZ:PROC		; TestForm1::OnbtnOpenMotor2
EXTRN	?OnbtnOpenMotor3@TestForm1@@AAEXXZ:PROC		; TestForm1::OnbtnOpenMotor3
EXTRN	?OnbtnOpenMotor4@TestForm1@@AAEXXZ:PROC		; TestForm1::OnbtnOpenMotor4
EXTRN	?OnbtnOpenMotor5@TestForm1@@AAEXXZ:PROC		; TestForm1::OnbtnOpenMotor5
EXTRN	?OnbtnSaveParam@TestForm1@@AAEXXZ:PROC		; TestForm1::OnbtnSaveParam
EXTRN	?OnbtnGoFrm2@TestForm1@@AAEXXZ:PROC		; TestForm1::OnbtnGoFrm2
EXTRN	?OnbtnGoRight1@TestForm1@@AAEXXZ:PROC		; TestForm1::OnbtnGoRight1
EXTRN	?OnbtnGoRight2@TestForm1@@AAEXXZ:PROC		; TestForm1::OnbtnGoRight2
EXTRN	?OnbtnGoRight3@TestForm1@@AAEXXZ:PROC		; TestForm1::OnbtnGoRight3
EXTRN	?OnbtnGoRight4@TestForm1@@AAEXXZ:PROC		; TestForm1::OnbtnGoRight4
EXTRN	?OnbtnGoRight5@TestForm1@@AAEXXZ:PROC		; TestForm1::OnbtnGoRight5
EXTRN	?OnbtnGoLeft1@TestForm1@@AAEXXZ:PROC		; TestForm1::OnbtnGoLeft1
EXTRN	?OnbtnGoLeft2@TestForm1@@AAEXXZ:PROC		; TestForm1::OnbtnGoLeft2
EXTRN	?OnbtnGoLeft3@TestForm1@@AAEXXZ:PROC		; TestForm1::OnbtnGoLeft3
EXTRN	?OnbtnGoLeft4@TestForm1@@AAEXXZ:PROC		; TestForm1::OnbtnGoLeft4
EXTRN	?OnbtnGoLeft5@TestForm1@@AAEXXZ:PROC		; TestForm1::OnbtnGoLeft5
EXTRN	?OnbtnReadInput@TestForm1@@AAEXXZ:PROC		; TestForm1::OnbtnReadInput
EXTRN	?OnbtnOpenForceSensor@TestForm1@@AAEXXZ:PROC	; TestForm1::OnbtnOpenForceSensor
EXTRN	?OnbtnReadForceSensor@TestForm1@@AAEXXZ:PROC	; TestForm1::OnbtnReadForceSensor
EXTRN	?OnbtnPullLiqiud@TestForm1@@AAEXXZ:PROC		; TestForm1::OnbtnPullLiqiud
EXTRN	?OnbtnPullLiqiud_2@TestForm1@@AAEXXZ:PROC	; TestForm1::OnbtnPullLiqiud_2
EXTRN	?OnbtnSetOutputLow@TestForm1@@AAEXXZ:PROC	; TestForm1::OnbtnSetOutputLow
EXTRN	?OnbtnSetOutputHigh@TestForm1@@AAEXXZ:PROC	; TestForm1::OnbtnSetOutputHigh
CRT$XCU	SEGMENT
??staticMetaObject$initializer$@TestForm1@@2P6AXXZA@@3P6AXXZA DD FLAT:??__E?staticMetaObject@TestForm1@@2UQMetaObject@@B@@YAXXZ ; ??staticMetaObject$initializer$@TestForm1@@2P6AXXZA@@3P6AXXZA
CRT$XCU	ENDS
_DATA	SEGMENT
?staticMetaObject@TestForm1@@2UQMetaObject@@B DB 4 DUP(00H) ; TestForm1::staticMetaObject
	DD	FLAT:?qt_meta_stringdata_TestForm1@@3Uqt_meta_stringdata_TestForm1_t@@B
	DD	FLAT:?qt_meta_data_TestForm1@@3QBIB
	DD	FLAT:?qt_static_metacall@TestForm1@@CAXPAVQObject@@W4Call@QMetaObject@@HPAPAX@Z
	DD	00H
	DD	00H
_DATA	ENDS
; Function compile flags: /Ogtp
;	COMDAT ??__E?staticMetaObject@TestForm1@@2UQMetaObject@@B@@YAXXZ
text$di	SEGMENT
??__E?staticMetaObject@TestForm1@@2UQMetaObject@@B@@YAXXZ PROC ; `dynamic initializer for 'TestForm1::staticMetaObject'', COMDAT
; File e:\finalui_316latest_canuse_300ms_db_moreliandong\motortest1\generatedfiles\release\moc_testform1.cpp
; Line 180
	mov	eax, DWORD PTR __imp_?staticMetaObject@QWidget@@2UQMetaObject@@B
	mov	DWORD PTR ?staticMetaObject@TestForm1@@2UQMetaObject@@B, eax
; Line 185
	ret	0
??__E?staticMetaObject@TestForm1@@2UQMetaObject@@B@@YAXXZ ENDP ; `dynamic initializer for 'TestForm1::staticMetaObject''
text$di	ENDS
; Function compile flags: /Ogtp
;	COMDAT ?qt_static_metacall@TestForm1@@CAXPAVQObject@@W4Call@QMetaObject@@HPAPAX@Z
_TEXT	SEGMENT
__o$ = 8						; size = 4
__c$ = 12						; size = 4
__id$ = 16						; size = 4
__a$ = 20						; size = 4
?qt_static_metacall@TestForm1@@CAXPAVQObject@@W4Call@QMetaObject@@HPAPAX@Z PROC ; TestForm1::qt_static_metacall, COMDAT
; File e:\finalui_316latest_canuse_300ms_db_moreliandong\motortest1\generatedfiles\release\moc_testform1.cpp
; Line 144
	push	ebp
	mov	ebp, esp
; Line 145
	cmp	DWORD PTR __c$[ebp], 0
	jne	$LN29@qt_static_
; Line 148
	mov	eax, DWORD PTR __id$[ebp]
	cmp	eax, 23					; 00000017H
	ja	$LN29@qt_static_
	jmp	DWORD PTR $LN34@qt_static_[eax*4]
$LN5@qt_static_:
; Line 149
	mov	ecx, DWORD PTR __o$[ebp]
; Line 177
	pop	ebp
; Line 149
	jmp	?OnbtnOpenMotor1@TestForm1@@AAEXXZ	; TestForm1::OnbtnOpenMotor1
$LN6@qt_static_:
; Line 150
	mov	ecx, DWORD PTR __o$[ebp]
; Line 177
	pop	ebp
; Line 150
	jmp	?OnbtnOpenMotor2@TestForm1@@AAEXXZ	; TestForm1::OnbtnOpenMotor2
$LN7@qt_static_:
; Line 151
	mov	ecx, DWORD PTR __o$[ebp]
; Line 177
	pop	ebp
; Line 151
	jmp	?OnbtnOpenMotor3@TestForm1@@AAEXXZ	; TestForm1::OnbtnOpenMotor3
$LN8@qt_static_:
; Line 152
	mov	ecx, DWORD PTR __o$[ebp]
; Line 177
	pop	ebp
; Line 152
	jmp	?OnbtnOpenMotor4@TestForm1@@AAEXXZ	; TestForm1::OnbtnOpenMotor4
$LN9@qt_static_:
; Line 153
	mov	ecx, DWORD PTR __o$[ebp]
; Line 177
	pop	ebp
; Line 153
	jmp	?OnbtnOpenMotor5@TestForm1@@AAEXXZ	; TestForm1::OnbtnOpenMotor5
$LN10@qt_static_:
; Line 154
	mov	ecx, DWORD PTR __o$[ebp]
; Line 177
	pop	ebp
; Line 154
	jmp	?OnbtnSaveParam@TestForm1@@AAEXXZ	; TestForm1::OnbtnSaveParam
$LN11@qt_static_:
; Line 155
	mov	ecx, DWORD PTR __o$[ebp]
; Line 177
	pop	ebp
; Line 155
	jmp	?OnbtnGoFrm2@TestForm1@@AAEXXZ		; TestForm1::OnbtnGoFrm2
$LN12@qt_static_:
; Line 156
	mov	ecx, DWORD PTR __o$[ebp]
; Line 177
	pop	ebp
; Line 156
	jmp	?OnbtnGoRight1@TestForm1@@AAEXXZ	; TestForm1::OnbtnGoRight1
$LN13@qt_static_:
; Line 157
	mov	ecx, DWORD PTR __o$[ebp]
; Line 177
	pop	ebp
; Line 157
	jmp	?OnbtnGoRight2@TestForm1@@AAEXXZ	; TestForm1::OnbtnGoRight2
$LN14@qt_static_:
; Line 158
	mov	ecx, DWORD PTR __o$[ebp]
; Line 177
	pop	ebp
; Line 158
	jmp	?OnbtnGoRight3@TestForm1@@AAEXXZ	; TestForm1::OnbtnGoRight3
$LN15@qt_static_:
; Line 159
	mov	ecx, DWORD PTR __o$[ebp]
; Line 177
	pop	ebp
; Line 159
	jmp	?OnbtnGoRight4@TestForm1@@AAEXXZ	; TestForm1::OnbtnGoRight4
$LN16@qt_static_:
; Line 160
	mov	ecx, DWORD PTR __o$[ebp]
; Line 177
	pop	ebp
; Line 160
	jmp	?OnbtnGoRight5@TestForm1@@AAEXXZ	; TestForm1::OnbtnGoRight5
$LN17@qt_static_:
; Line 161
	mov	ecx, DWORD PTR __o$[ebp]
; Line 177
	pop	ebp
; Line 161
	jmp	?OnbtnGoLeft1@TestForm1@@AAEXXZ		; TestForm1::OnbtnGoLeft1
$LN18@qt_static_:
; Line 162
	mov	ecx, DWORD PTR __o$[ebp]
; Line 177
	pop	ebp
; Line 162
	jmp	?OnbtnGoLeft2@TestForm1@@AAEXXZ		; TestForm1::OnbtnGoLeft2
$LN19@qt_static_:
; Line 163
	mov	ecx, DWORD PTR __o$[ebp]
; Line 177
	pop	ebp
; Line 163
	jmp	?OnbtnGoLeft3@TestForm1@@AAEXXZ		; TestForm1::OnbtnGoLeft3
$LN20@qt_static_:
; Line 164
	mov	ecx, DWORD PTR __o$[ebp]
; Line 177
	pop	ebp
; Line 164
	jmp	?OnbtnGoLeft4@TestForm1@@AAEXXZ		; TestForm1::OnbtnGoLeft4
$LN21@qt_static_:
; Line 165
	mov	ecx, DWORD PTR __o$[ebp]
; Line 177
	pop	ebp
; Line 165
	jmp	?OnbtnGoLeft5@TestForm1@@AAEXXZ		; TestForm1::OnbtnGoLeft5
$LN22@qt_static_:
; Line 166
	mov	ecx, DWORD PTR __o$[ebp]
; Line 177
	pop	ebp
; Line 166
	jmp	?OnbtnReadInput@TestForm1@@AAEXXZ	; TestForm1::OnbtnReadInput
$LN23@qt_static_:
; Line 167
	mov	ecx, DWORD PTR __o$[ebp]
; Line 177
	pop	ebp
; Line 167
	jmp	?OnbtnOpenForceSensor@TestForm1@@AAEXXZ	; TestForm1::OnbtnOpenForceSensor
$LN24@qt_static_:
; Line 168
	mov	ecx, DWORD PTR __o$[ebp]
; Line 177
	pop	ebp
; Line 168
	jmp	?OnbtnReadForceSensor@TestForm1@@AAEXXZ	; TestForm1::OnbtnReadForceSensor
$LN25@qt_static_:
; Line 169
	mov	ecx, DWORD PTR __o$[ebp]
; Line 177
	pop	ebp
; Line 169
	jmp	?OnbtnPullLiqiud@TestForm1@@AAEXXZ	; TestForm1::OnbtnPullLiqiud
$LN26@qt_static_:
; Line 170
	mov	ecx, DWORD PTR __o$[ebp]
; Line 177
	pop	ebp
; Line 170
	jmp	?OnbtnPullLiqiud_2@TestForm1@@AAEXXZ	; TestForm1::OnbtnPullLiqiud_2
$LN27@qt_static_:
; Line 171
	mov	ecx, DWORD PTR __o$[ebp]
; Line 177
	pop	ebp
; Line 171
	jmp	?OnbtnSetOutputLow@TestForm1@@AAEXXZ	; TestForm1::OnbtnSetOutputLow
$LN28@qt_static_:
; Line 172
	mov	ecx, DWORD PTR __o$[ebp]
; Line 177
	pop	ebp
; Line 172
	jmp	?OnbtnSetOutputHigh@TestForm1@@AAEXXZ	; TestForm1::OnbtnSetOutputHigh
$LN29@qt_static_:
; Line 177
	pop	ebp
	ret	0
	npad	2
$LN34@qt_static_:
	DD	$LN5@qt_static_
	DD	$LN6@qt_static_
	DD	$LN7@qt_static_
	DD	$LN8@qt_static_
	DD	$LN9@qt_static_
	DD	$LN10@qt_static_
	DD	$LN11@qt_static_
	DD	$LN12@qt_static_
	DD	$LN13@qt_static_
	DD	$LN14@qt_static_
	DD	$LN15@qt_static_
	DD	$LN16@qt_static_
	DD	$LN17@qt_static_
	DD	$LN18@qt_static_
	DD	$LN19@qt_static_
	DD	$LN20@qt_static_
	DD	$LN21@qt_static_
	DD	$LN22@qt_static_
	DD	$LN23@qt_static_
	DD	$LN24@qt_static_
	DD	$LN25@qt_static_
	DD	$LN26@qt_static_
	DD	$LN27@qt_static_
	DD	$LN28@qt_static_
?qt_static_metacall@TestForm1@@CAXPAVQObject@@W4Call@QMetaObject@@HPAPAX@Z ENDP ; TestForm1::qt_static_metacall
_TEXT	ENDS
; Function compile flags: /Ogtp
;	COMDAT ?qt_metacall@TestForm1@@UAEHW4Call@QMetaObject@@HPAPAX@Z
_TEXT	SEGMENT
_this$1$ = -4						; size = 4
__c$ = 8						; size = 4
__id$ = 12						; size = 4
__a$ = 16						; size = 4
?qt_metacall@TestForm1@@UAEHW4Call@QMetaObject@@HPAPAX@Z PROC ; TestForm1::qt_metacall, COMDAT
; _this$ = ecx
; File e:\finalui_316latest_canuse_300ms_db_moreliandong\motortest1\generatedfiles\release\moc_testform1.cpp
; Line 203
	push	ebp
	mov	ebp, esp
	push	ecx
	push	ebx
; Line 204
	mov	ebx, DWORD PTR __a$[ebp]
	mov	eax, ecx
	push	esi
	push	edi
	mov	edi, DWORD PTR __c$[ebp]
	push	ebx
	push	DWORD PTR __id$[ebp]
	mov	DWORD PTR _this$1$[ebp], eax
	push	edi
	call	DWORD PTR __imp_?qt_metacall@QWidget@@UAEHW4Call@QMetaObject@@HPAPAX@Z
	mov	esi, eax
; Line 205
	test	esi, esi
	js	SHORT $LN1@qt_metacal
; Line 207
	test	edi, edi
	jne	SHORT $LN3@qt_metacal
; Line 208
	cmp	esi, 24					; 00000018H
	jge	SHORT $LN7@qt_metacal
; Line 209
	push	ebx
	push	esi
	push	edi
	push	DWORD PTR _this$1$[ebp]
	call	?qt_static_metacall@TestForm1@@CAXPAVQObject@@W4Call@QMetaObject@@HPAPAX@Z ; TestForm1::qt_static_metacall
	add	esp, 16					; 00000010H
; Line 214
	sub	esi, 24					; 00000018H
; Line 216
	mov	eax, esi
	pop	edi
	pop	esi
	pop	ebx
; Line 217
	mov	esp, ebp
	pop	ebp
	ret	12					; 0000000cH
$LN3@qt_metacal:
; Line 211
	cmp	edi, 12					; 0000000cH
	jne	SHORT $LN6@qt_metacal
; Line 212
	cmp	esi, 24					; 00000018H
	jge	SHORT $LN7@qt_metacal
; Line 213
	mov	eax, DWORD PTR [ebx]
	mov	DWORD PTR [eax], -1
$LN7@qt_metacal:
; Line 214
	sub	esi, 24					; 00000018H
$LN6@qt_metacal:
; Line 216
	mov	eax, esi
$LN1@qt_metacal:
	pop	edi
	pop	esi
	pop	ebx
; Line 217
	mov	esp, ebp
	pop	ebp
	ret	12					; 0000000cH
?qt_metacall@TestForm1@@UAEHW4Call@QMetaObject@@HPAPAX@Z ENDP ; TestForm1::qt_metacall
_TEXT	ENDS
; Function compile flags: /Ogtp
;	COMDAT ?qt_metacast@TestForm1@@UAEPAXPBD@Z
_TEXT	SEGMENT
__clname$ = 8						; size = 4
?qt_metacast@TestForm1@@UAEPAXPBD@Z PROC		; TestForm1::qt_metacast, COMDAT
; _this$ = ecx
; File e:\finalui_316latest_canuse_300ms_db_moreliandong\motortest1\generatedfiles\release\moc_testform1.cpp
; Line 195
	push	ebp
	mov	ebp, esp
	push	esi
; Line 196
	mov	esi, DWORD PTR __clname$[ebp]
	push	edi
	mov	edi, ecx
	test	esi, esi
	jne	SHORT $LN2@qt_metacas
	pop	edi
	xor	eax, eax
	pop	esi
; Line 200
	pop	ebp
	ret	4
$LN2@qt_metacas:
; Line 197
	mov	eax, OFFSET ?qt_meta_stringdata_TestForm1@@3Uqt_meta_stringdata_TestForm1_t@@B+416
	mov	ecx, esi
	npad	3
$LL5@qt_metacas:
	mov	dl, BYTE PTR [ecx]
	cmp	dl, BYTE PTR [eax]
	jne	SHORT $LN6@qt_metacas
	test	dl, dl
	je	SHORT $LN7@qt_metacas
	mov	dl, BYTE PTR [ecx+1]
	cmp	dl, BYTE PTR [eax+1]
	jne	SHORT $LN6@qt_metacas
	add	ecx, 2
	add	eax, 2
	test	dl, dl
	jne	SHORT $LL5@qt_metacas
$LN7@qt_metacas:
	xor	eax, eax
	jmp	SHORT $LN8@qt_metacas
$LN6@qt_metacas:
	sbb	eax, eax
	or	eax, 1
$LN8@qt_metacas:
	test	eax, eax
	jne	SHORT $LN3@qt_metacas
; Line 198
	mov	eax, edi
	pop	edi
	pop	esi
; Line 200
	pop	ebp
	ret	4
$LN3@qt_metacas:
; Line 199
	push	esi
	mov	ecx, edi
	call	DWORD PTR __imp_?qt_metacast@QWidget@@UAEPAXPBD@Z
	pop	edi
	pop	esi
; Line 200
	pop	ebp
	ret	4
?qt_metacast@TestForm1@@UAEPAXPBD@Z ENDP		; TestForm1::qt_metacast
_TEXT	ENDS
; Function compile flags: /Ogtp
;	COMDAT ?metaObject@TestForm1@@UBEPBUQMetaObject@@XZ
_TEXT	SEGMENT
?metaObject@TestForm1@@UBEPBUQMetaObject@@XZ PROC	; TestForm1::metaObject, COMDAT
; _this$ = ecx
; File e:\finalui_316latest_canuse_300ms_db_moreliandong\motortest1\generatedfiles\release\moc_testform1.cpp
; Line 191
	mov	ecx, DWORD PTR [ecx+4]
	cmp	DWORD PTR [ecx+24], 0
	je	SHORT $LN3@metaObject
	jmp	DWORD PTR __imp_?dynamicMetaObject@QObjectData@@QBEPAUQMetaObject@@XZ
$LN3@metaObject:
	mov	eax, OFFSET ?staticMetaObject@TestForm1@@2UQMetaObject@@B ; TestForm1::staticMetaObject
; Line 192
	ret	0
?metaObject@TestForm1@@UBEPBUQMetaObject@@XZ ENDP	; TestForm1::metaObject
_TEXT	ENDS
; Function compile flags: /Ogtp
;	COMDAT ??C?$QScopedPointer@VQObjectData@@U?$QScopedPointerDeleter@VQObjectData@@@@@@QBEPAVQObjectData@@XZ
_TEXT	SEGMENT
??C?$QScopedPointer@VQObjectData@@U?$QScopedPointerDeleter@VQObjectData@@@@@@QBEPAVQObjectData@@XZ PROC ; QScopedPointer<QObjectData,QScopedPointerDeleter<QObjectData> >::operator->, COMDAT
; _this$ = ecx
; File d:\qtlatest\5.12.0\msvc2017\include\qtcore\qscopedpointer.h
; Line 118
	mov	eax, DWORD PTR [ecx]
; Line 119
	ret	0
??C?$QScopedPointer@VQObjectData@@U?$QScopedPointerDeleter@VQObjectData@@@@@@QBEPAVQObjectData@@XZ ENDP ; QScopedPointer<QObjectData,QScopedPointerDeleter<QObjectData> >::operator->
_TEXT	ENDS
END
