; Listing generated by Microsoft (R) Optimizing Compiler Version 19.00.24215.1 

	TITLE	E:\finalUI_316latest_canuse_300ms_DB_moreliandong\motorTest1\GeneratedFiles\Release\moc_cthermometer.cpp
	.686P
	.XMM
	include listing.inc
	.model	flat

INCLUDELIB MSVCRT
INCLUDELIB OLDNAMES

EXTRN	__imp_?staticMetaObject@QWidget@@2UQMetaObject@@B:BYTE
CONST	SEGMENT
?qt_meta_stringdata_CThermometer@@3Uqt_meta_stringdata_CThermometer_t@@B DD 0ffffffffH ; qt_meta_stringdata_CThermometer
	DD	0cH
	DD	00H
	DD	020H
	DD	0ffffffffH
	DD	05H
	DD	00H
	DD	01dH
	DB	'CThermometer', 00H, 'value', 00H
	ORG $+1
	ORG $+4
?qt_meta_data_CThermometer@@3QBIB DD 08H		; qt_meta_data_CThermometer
	DD	00H
	DD	00H
	DD	00H
	DD	00H
	DD	00H
	DD	01H
	DD	0eH
	DD	00H
	DD	00H
	DD	00H
	DD	00H
	DD	00H
	DD	00H
	DD	01H
	DD	06H
	DD	095103H
	DD	00H
CONST	ENDS
PUBLIC	?metaObject@CThermometer@@UBEPBUQMetaObject@@XZ	; CThermometer::metaObject
PUBLIC	?qt_metacast@CThermometer@@UAEPAXPBD@Z		; CThermometer::qt_metacast
PUBLIC	?qt_metacall@CThermometer@@UAEHW4Call@QMetaObject@@HPAPAX@Z ; CThermometer::qt_metacall
PUBLIC	?qt_static_metacall@CThermometer@@CAXPAVQObject@@W4Call@QMetaObject@@HPAPAX@Z ; CThermometer::qt_static_metacall
PUBLIC	?staticMetaObject@CThermometer@@2UQMetaObject@@B ; CThermometer::staticMetaObject
EXTRN	__imp_?dynamicMetaObject@QObjectData@@QBEPAUQMetaObject@@XZ:PROC
EXTRN	__imp_?qt_metacast@QWidget@@UAEPAXPBD@Z:PROC
EXTRN	__imp_?qt_metacall@QWidget@@UAEHW4Call@QMetaObject@@HPAPAX@Z:PROC
EXTRN	?setValue@CThermometer@@QAEXN@Z:PROC		; CThermometer::setValue
EXTRN	?getValue@CThermometer@@QAENXZ:PROC		; CThermometer::getValue
EXTRN	__fltused:DWORD
CRT$XCU	SEGMENT
??staticMetaObject$initializer$@CThermometer@@2P6AXXZA@@3P6AXXZA DD FLAT:??__E?staticMetaObject@CThermometer@@2UQMetaObject@@B@@YAXXZ ; ??staticMetaObject$initializer$@CThermometer@@2P6AXXZA@@3P6AXXZA
CRT$XCU	ENDS
_DATA	SEGMENT
?staticMetaObject@CThermometer@@2UQMetaObject@@B DB 4 DUP(00H) ; CThermometer::staticMetaObject
	DD	FLAT:?qt_meta_stringdata_CThermometer@@3Uqt_meta_stringdata_CThermometer_t@@B
	DD	FLAT:?qt_meta_data_CThermometer@@3QBIB
	DD	FLAT:?qt_static_metacall@CThermometer@@CAXPAVQObject@@W4Call@QMetaObject@@HPAPAX@Z
	DD	00H
	DD	00H
_DATA	ENDS
; Function compile flags: /Ogtp
;	COMDAT ??__E?staticMetaObject@CThermometer@@2UQMetaObject@@B@@YAXXZ
text$di	SEGMENT
??__E?staticMetaObject@CThermometer@@2UQMetaObject@@B@@YAXXZ PROC ; `dynamic initializer for 'CThermometer::staticMetaObject'', COMDAT
; File e:\finalui_316latest_canuse_300ms_db_moreliandong\motortest1\generatedfiles\release\moc_cthermometer.cpp
; Line 91
	mov	eax, DWORD PTR __imp_?staticMetaObject@QWidget@@2UQMetaObject@@B
	mov	DWORD PTR ?staticMetaObject@CThermometer@@2UQMetaObject@@B, eax
; Line 96
	ret	0
??__E?staticMetaObject@CThermometer@@2UQMetaObject@@B@@YAXXZ ENDP ; `dynamic initializer for 'CThermometer::staticMetaObject''
text$di	ENDS
; Function compile flags: /Ogtp
;	COMDAT ?qt_static_metacall@CThermometer@@CAXPAVQObject@@W4Call@QMetaObject@@HPAPAX@Z
_TEXT	SEGMENT
__o$ = 8						; size = 4
__c$ = 12						; size = 4
__id$ = 16						; size = 4
__a$ = 20						; size = 4
?qt_static_metacall@CThermometer@@CAXPAVQObject@@W4Call@QMetaObject@@HPAPAX@Z PROC ; CThermometer::qt_static_metacall, COMDAT
; File e:\finalui_316latest_canuse_300ms_db_moreliandong\motortest1\generatedfiles\release\moc_cthermometer.cpp
; Line 62
	push	ebp
	mov	ebp, esp
; Line 65
	mov	eax, DWORD PTR __c$[ebp]
	cmp	eax, 1
	jne	SHORT $LN6@qt_static_
; Line 69
	cmp	DWORD PTR __id$[ebp], 0
	mov	eax, DWORD PTR __a$[ebp]
	push	esi
	mov	esi, DWORD PTR [eax]
	jne	SHORT $LN16@qt_static_
; Line 70
	mov	ecx, DWORD PTR __o$[ebp]
	call	?getValue@CThermometer@@QAENXZ		; CThermometer::getValue
	fstp	QWORD PTR [esi]
$LN16@qt_static_:
	pop	esi
$LN13@qt_static_:
; Line 88
	pop	ebp
	ret	0
$LN6@qt_static_:
; Line 73
	cmp	eax, 2
	jne	SHORT $LN13@qt_static_
; Line 77
	cmp	DWORD PTR __id$[ebp], 0
	jne	SHORT $LN13@qt_static_
; Line 78
	mov	eax, DWORD PTR __a$[ebp]
	sub	esp, 8
	mov	ecx, DWORD PTR __o$[ebp]
	mov	eax, DWORD PTR [eax]
	movsd	xmm0, QWORD PTR [eax]
	movsd	QWORD PTR [esp], xmm0
	call	?setValue@CThermometer@@QAEXN@Z		; CThermometer::setValue
; Line 88
	pop	ebp
	ret	0
?qt_static_metacall@CThermometer@@CAXPAVQObject@@W4Call@QMetaObject@@HPAPAX@Z ENDP ; CThermometer::qt_static_metacall
_TEXT	ENDS
; Function compile flags: /Ogtp
;	COMDAT ?qt_metacall@CThermometer@@UAEHW4Call@QMetaObject@@HPAPAX@Z
_TEXT	SEGMENT
_this$1$ = -4						; size = 4
__c$ = 8						; size = 4
__id$ = 12						; size = 4
__a$ = 16						; size = 4
?qt_metacall@CThermometer@@UAEHW4Call@QMetaObject@@HPAPAX@Z PROC ; CThermometer::qt_metacall, COMDAT
; _this$ = ecx
; File e:\finalui_316latest_canuse_300ms_db_moreliandong\motortest1\generatedfiles\release\moc_cthermometer.cpp
; Line 114
	push	ebp
	mov	ebp, esp
	push	ecx
	push	ebx
; Line 115
	mov	ebx, DWORD PTR __a$[ebp]
	mov	eax, ecx
	push	esi
	push	edi
	mov	edi, DWORD PTR __c$[ebp]
	push	ebx
	push	DWORD PTR __id$[ebp]
	mov	DWORD PTR _this$1$[ebp], eax
	push	edi
	call	DWORD PTR __imp_?qt_metacall@QWidget@@UAEHW4Call@QMetaObject@@HPAPAX@Z
	mov	esi, eax
; Line 116
	test	esi, esi
	js	SHORT $LN1@qt_metacal
; Line 121
	cmp	edi, 1
	je	SHORT $LN31@qt_metacal
	cmp	edi, 2
	je	SHORT $LN32@qt_metacal
	cmp	edi, 3
	je	SHORT $LN28@qt_metacal
	cmp	edi, 11					; 0000000bH
	je	SHORT $LN28@qt_metacal
; Line 124
	cmp	edi, 4
	je	SHORT $LN28@qt_metacal
; Line 126
	cmp	edi, 5
	je	SHORT $LN28@qt_metacal
; Line 128
	cmp	edi, 6
	je	SHORT $LN28@qt_metacal
; Line 130
	cmp	edi, 7
	je	SHORT $LN28@qt_metacal
; Line 132
	cmp	edi, 8
	jne	SHORT $LN14@qt_metacal
; Line 136
	dec	esi
	pop	edi
	mov	eax, esi
	pop	esi
	pop	ebx
; Line 137
	mov	esp, ebp
	pop	ebp
	ret	12					; 0000000cH
$LN32@qt_metacal:
; Line 122
	test	esi, esi
	jne	SHORT $LN28@qt_metacal
	mov	eax, DWORD PTR [ebx]
	sub	esp, 8
	mov	ecx, DWORD PTR _this$1$[ebp]
	movsd	xmm0, QWORD PTR [eax]
	movsd	QWORD PTR [esp], xmm0
	call	?setValue@CThermometer@@QAEXN@Z		; CThermometer::setValue
; Line 123
	dec	esi
	pop	edi
; Line 136
	mov	eax, esi
	pop	esi
	pop	ebx
; Line 137
	mov	esp, ebp
	pop	ebp
	ret	12					; 0000000cH
$LN31@qt_metacal:
; Line 122
	mov	edi, DWORD PTR [ebx]
	test	esi, esi
	jne	SHORT $LN28@qt_metacal
	mov	ecx, DWORD PTR _this$1$[ebp]
	call	?getValue@CThermometer@@QAENXZ		; CThermometer::getValue
	fstp	QWORD PTR [edi]
$LN28@qt_metacal:
; Line 123
	dec	esi
$LN14@qt_metacal:
; Line 136
	mov	eax, esi
$LN1@qt_metacal:
	pop	edi
	pop	esi
	pop	ebx
; Line 137
	mov	esp, ebp
	pop	ebp
	ret	12					; 0000000cH
?qt_metacall@CThermometer@@UAEHW4Call@QMetaObject@@HPAPAX@Z ENDP ; CThermometer::qt_metacall
_TEXT	ENDS
; Function compile flags: /Ogtp
;	COMDAT ?qt_metacast@CThermometer@@UAEPAXPBD@Z
_TEXT	SEGMENT
__clname$ = 8						; size = 4
?qt_metacast@CThermometer@@UAEPAXPBD@Z PROC		; CThermometer::qt_metacast, COMDAT
; _this$ = ecx
; File e:\finalui_316latest_canuse_300ms_db_moreliandong\motortest1\generatedfiles\release\moc_cthermometer.cpp
; Line 106
	push	ebp
	mov	ebp, esp
	push	esi
; Line 107
	mov	esi, DWORD PTR __clname$[ebp]
	push	edi
	mov	edi, ecx
	test	esi, esi
	jne	SHORT $LN2@qt_metacas
	pop	edi
	xor	eax, eax
	pop	esi
; Line 111
	pop	ebp
	ret	4
$LN2@qt_metacas:
; Line 108
	mov	eax, OFFSET ?qt_meta_stringdata_CThermometer@@3Uqt_meta_stringdata_CThermometer_t@@B+32
	mov	ecx, esi
	npad	3
$LL5@qt_metacas:
	mov	dl, BYTE PTR [ecx]
	cmp	dl, BYTE PTR [eax]
	jne	SHORT $LN6@qt_metacas
	test	dl, dl
	je	SHORT $LN7@qt_metacas
	mov	dl, BYTE PTR [ecx+1]
	cmp	dl, BYTE PTR [eax+1]
	jne	SHORT $LN6@qt_metacas
	add	ecx, 2
	add	eax, 2
	test	dl, dl
	jne	SHORT $LL5@qt_metacas
$LN7@qt_metacas:
	xor	eax, eax
	jmp	SHORT $LN8@qt_metacas
$LN6@qt_metacas:
	sbb	eax, eax
	or	eax, 1
$LN8@qt_metacas:
	test	eax, eax
	jne	SHORT $LN3@qt_metacas
; Line 109
	mov	eax, edi
	pop	edi
	pop	esi
; Line 111
	pop	ebp
	ret	4
$LN3@qt_metacas:
; Line 110
	push	esi
	mov	ecx, edi
	call	DWORD PTR __imp_?qt_metacast@QWidget@@UAEPAXPBD@Z
	pop	edi
	pop	esi
; Line 111
	pop	ebp
	ret	4
?qt_metacast@CThermometer@@UAEPAXPBD@Z ENDP		; CThermometer::qt_metacast
_TEXT	ENDS
; Function compile flags: /Ogtp
;	COMDAT ?metaObject@CThermometer@@UBEPBUQMetaObject@@XZ
_TEXT	SEGMENT
?metaObject@CThermometer@@UBEPBUQMetaObject@@XZ PROC	; CThermometer::metaObject, COMDAT
; _this$ = ecx
; File e:\finalui_316latest_canuse_300ms_db_moreliandong\motortest1\generatedfiles\release\moc_cthermometer.cpp
; Line 102
	mov	ecx, DWORD PTR [ecx+4]
	cmp	DWORD PTR [ecx+24], 0
	je	SHORT $LN3@metaObject
	jmp	DWORD PTR __imp_?dynamicMetaObject@QObjectData@@QBEPAUQMetaObject@@XZ
$LN3@metaObject:
	mov	eax, OFFSET ?staticMetaObject@CThermometer@@2UQMetaObject@@B ; CThermometer::staticMetaObject
; Line 103
	ret	0
?metaObject@CThermometer@@UBEPBUQMetaObject@@XZ ENDP	; CThermometer::metaObject
_TEXT	ENDS
; Function compile flags: /Ogtp
;	COMDAT ??C?$QScopedPointer@VQObjectData@@U?$QScopedPointerDeleter@VQObjectData@@@@@@QBEPAVQObjectData@@XZ
_TEXT	SEGMENT
??C?$QScopedPointer@VQObjectData@@U?$QScopedPointerDeleter@VQObjectData@@@@@@QBEPAVQObjectData@@XZ PROC ; QScopedPointer<QObjectData,QScopedPointerDeleter<QObjectData> >::operator->, COMDAT
; _this$ = ecx
; File d:\qtlatest\5.12.0\msvc2017\include\qtcore\qscopedpointer.h
; Line 118
	mov	eax, DWORD PTR [ecx]
; Line 119
	ret	0
??C?$QScopedPointer@VQObjectData@@U?$QScopedPointerDeleter@VQObjectData@@@@@@QBEPAVQObjectData@@XZ ENDP ; QScopedPointer<QObjectData,QScopedPointerDeleter<QObjectData> >::operator->
_TEXT	ENDS
END
