; Listing generated by Microsoft (R) Optimizing Compiler Version 19.00.24215.1 

	TITLE	E:\finalUI_316latest_canuse_300ms_DB_moreliandong\motorTest1\GeneratedFiles\Release\moc_motorTest1.cpp
	.686P
	.XMM
	include listing.inc
	.model	flat

INCLUDELIB MSVCRT
INCLUDELIB OLDNAMES

EXTRN	__imp_?staticMetaObject@QMainWindow@@2UQMetaObject@@B:BYTE
CONST	SEGMENT
?qt_meta_stringdata_motorTest1@@3Uqt_meta_stringdata_motorTest1_t@@B DD 0ffffffffH ; qt_meta_stringdata_motorTest1
	DD	0aH
	DD	00H
	DD	0d0H
	DD	0ffffffffH
	DD	013H
	DD	00H
	DD	0cbH
	DD	0ffffffffH
	DD	00H
	DD	00H
	DD	0cfH
	DD	0ffffffffH
	DD	010H
	DD	00H
	DD	0c0H
	DD	0ffffffffH
	DD	010H
	DD	00H
	DD	0c1H
	DD	0ffffffffH
	DD	0cH
	DD	00H
	DD	0c2H
	DD	0ffffffffH
	DD	0dH
	DD	00H
	DD	0bfH
	DD	0ffffffffH
	DD	0eH
	DD	00H
	DD	0bdH
	DD	0ffffffffH
	DD	0eH
	DD	00H
	DD	0bcH
	DD	0ffffffffH
	DD	0fH
	DD	00H
	DD	0bbH
	DD	0ffffffffH
	DD	013H
	DD	00H
	DD	0bbH
	DD	0ffffffffH
	DD	011H
	DD	00H
	DD	0bfH
	DD	0ffffffffH
	DD	011H
	DD	00H
	DD	0c1H
	DB	'motorTest1', 00H, 'OnbtnOpenSerialPort', 00H, 00H, 'Onbt'
	DB	'nStartMotor1', 00H, 'OnbtnStartMotor2', 00H, 'OncboxIsLink', 00H
	DB	'OnSysTimerOut', 00H, 'OnSysTimer2Out', 00H, 'OnbtnSetFilter', 00H
	DB	'OnbtnClearForce', 00H, 'OnbtnStartReadForce', 00H, 'OnbtnGoZe'
	DB	'roMotor1', 00H, 'OnbtnGoZeroMotor2', 00H
	ORG $+1
	ORG $+4
?qt_meta_data_motorTest1@@3QBIB DD 08H			; qt_meta_data_motorTest1
	DD	00H
	DD	00H
	DD	00H
	DD	0bH
	DD	0eH
	DD	00H
	DD	00H
	DD	00H
	DD	00H
	DD	00H
	DD	00H
	DD	00H
	DD	00H
	DD	01H
	DD	00H
	DD	045H
	DD	02H
	DD	08H
	DD	03H
	DD	00H
	DD	046H
	DD	02H
	DD	08H
	DD	04H
	DD	00H
	DD	047H
	DD	02H
	DD	08H
	DD	05H
	DD	01H
	DD	048H
	DD	02H
	DD	08H
	DD	06H
	DD	00H
	DD	04bH
	DD	02H
	DD	08H
	DD	07H
	DD	00H
	DD	04cH
	DD	02H
	DD	08H
	DD	08H
	DD	00H
	DD	04dH
	DD	02H
	DD	08H
	DD	09H
	DD	00H
	DD	04eH
	DD	02H
	DD	08H
	DD	0aH
	DD	00H
	DD	04fH
	DD	02H
	DD	08H
	DD	0bH
	DD	00H
	DD	050H
	DD	02H
	DD	08H
	DD	0cH
	DD	00H
	DD	051H
	DD	02H
	DD	08H
	DD	02bH
	DD	02bH
	DD	02bH
	DD	02bH
	DD	02H
	DD	02H
	DD	02bH
	DD	02bH
	DD	02bH
	DD	02bH
	DD	02bH
	DD	02bH
	DD	02bH
	DD	00H
CONST	ENDS
PUBLIC	?metaObject@motorTest1@@UBEPBUQMetaObject@@XZ	; motorTest1::metaObject
PUBLIC	?qt_metacast@motorTest1@@UAEPAXPBD@Z		; motorTest1::qt_metacast
PUBLIC	?qt_metacall@motorTest1@@UAEHW4Call@QMetaObject@@HPAPAX@Z ; motorTest1::qt_metacall
PUBLIC	?qt_static_metacall@motorTest1@@CAXPAVQObject@@W4Call@QMetaObject@@HPAPAX@Z ; motorTest1::qt_static_metacall
PUBLIC	?staticMetaObject@motorTest1@@2UQMetaObject@@B	; motorTest1::staticMetaObject
EXTRN	__imp_?dynamicMetaObject@QObjectData@@QBEPAUQMetaObject@@XZ:PROC
EXTRN	__imp_?qt_metacast@QMainWindow@@UAEPAXPBD@Z:PROC
EXTRN	__imp_?qt_metacall@QMainWindow@@UAEHW4Call@QMetaObject@@HPAPAX@Z:PROC
EXTRN	?OnbtnOpenSerialPort@motorTest1@@AAEXXZ:PROC	; motorTest1::OnbtnOpenSerialPort
EXTRN	?OnbtnStartMotor1@motorTest1@@AAEXXZ:PROC	; motorTest1::OnbtnStartMotor1
EXTRN	?OnbtnStartMotor2@motorTest1@@AAEXXZ:PROC	; motorTest1::OnbtnStartMotor2
EXTRN	?OncboxIsLink@motorTest1@@AAEXH@Z:PROC		; motorTest1::OncboxIsLink
EXTRN	?OnSysTimerOut@motorTest1@@AAEXXZ:PROC		; motorTest1::OnSysTimerOut
EXTRN	?OnSysTimer2Out@motorTest1@@AAEXXZ:PROC		; motorTest1::OnSysTimer2Out
EXTRN	?OnbtnSetFilter@motorTest1@@AAEXXZ:PROC		; motorTest1::OnbtnSetFilter
EXTRN	?OnbtnClearForce@motorTest1@@AAEXXZ:PROC	; motorTest1::OnbtnClearForce
EXTRN	?OnbtnStartReadForce@motorTest1@@AAEXXZ:PROC	; motorTest1::OnbtnStartReadForce
EXTRN	?OnbtnGoZeroMotor1@motorTest1@@AAEXXZ:PROC	; motorTest1::OnbtnGoZeroMotor1
EXTRN	?OnbtnGoZeroMotor2@motorTest1@@AAEXXZ:PROC	; motorTest1::OnbtnGoZeroMotor2
CRT$XCU	SEGMENT
??staticMetaObject$initializer$@motorTest1@@2P6AXXZA@@3P6AXXZA DD FLAT:??__E?staticMetaObject@motorTest1@@2UQMetaObject@@B@@YAXXZ ; ??staticMetaObject$initializer$@motorTest1@@2P6AXXZA@@3P6AXXZA
CRT$XCU	ENDS
_DATA	SEGMENT
?staticMetaObject@motorTest1@@2UQMetaObject@@B DB 4 DUP(00H) ; motorTest1::staticMetaObject
	DD	FLAT:?qt_meta_stringdata_motorTest1@@3Uqt_meta_stringdata_motorTest1_t@@B
	DD	FLAT:?qt_meta_data_motorTest1@@3QBIB
	DD	FLAT:?qt_static_metacall@motorTest1@@CAXPAVQObject@@W4Call@QMetaObject@@HPAPAX@Z
	DD	00H
	DD	00H
_DATA	ENDS
; Function compile flags: /Ogtp
;	COMDAT ??__E?staticMetaObject@motorTest1@@2UQMetaObject@@B@@YAXXZ
text$di	SEGMENT
??__E?staticMetaObject@motorTest1@@2UQMetaObject@@B@@YAXXZ PROC ; `dynamic initializer for 'motorTest1::staticMetaObject'', COMDAT
; File e:\finalui_316latest_canuse_300ms_db_moreliandong\motortest1\generatedfiles\release\moc_motortest1.cpp
; Line 123
	mov	eax, DWORD PTR __imp_?staticMetaObject@QMainWindow@@2UQMetaObject@@B
	mov	DWORD PTR ?staticMetaObject@motorTest1@@2UQMetaObject@@B, eax
; Line 128
	ret	0
??__E?staticMetaObject@motorTest1@@2UQMetaObject@@B@@YAXXZ ENDP ; `dynamic initializer for 'motorTest1::staticMetaObject''
text$di	ENDS
; Function compile flags: /Ogtp
;	COMDAT ?qt_static_metacall@motorTest1@@CAXPAVQObject@@W4Call@QMetaObject@@HPAPAX@Z
_TEXT	SEGMENT
__o$ = 8						; size = 4
__c$ = 12						; size = 4
__id$ = 16						; size = 4
__a$ = 20						; size = 4
?qt_static_metacall@motorTest1@@CAXPAVQObject@@W4Call@QMetaObject@@HPAPAX@Z PROC ; motorTest1::qt_static_metacall, COMDAT
; File e:\finalui_316latest_canuse_300ms_db_moreliandong\motortest1\generatedfiles\release\moc_motortest1.cpp
; Line 101
	push	ebp
	mov	ebp, esp
; Line 102
	cmp	DWORD PTR __c$[ebp], 0
	jne	SHORT $LN16@qt_static_
; Line 105
	mov	eax, DWORD PTR __id$[ebp]
	cmp	eax, 10					; 0000000aH
	ja	SHORT $LN16@qt_static_
	jmp	DWORD PTR $LN21@qt_static_[eax*4]
$LN5@qt_static_:
; Line 106
	mov	ecx, DWORD PTR __o$[ebp]
; Line 120
	pop	ebp
; Line 106
	jmp	?OnbtnOpenSerialPort@motorTest1@@AAEXXZ	; motorTest1::OnbtnOpenSerialPort
$LN6@qt_static_:
; Line 107
	mov	ecx, DWORD PTR __o$[ebp]
; Line 120
	pop	ebp
; Line 107
	jmp	?OnbtnStartMotor1@motorTest1@@AAEXXZ	; motorTest1::OnbtnStartMotor1
$LN7@qt_static_:
; Line 108
	mov	ecx, DWORD PTR __o$[ebp]
; Line 120
	pop	ebp
; Line 108
	jmp	?OnbtnStartMotor2@motorTest1@@AAEXXZ	; motorTest1::OnbtnStartMotor2
$LN8@qt_static_:
; Line 109
	mov	eax, DWORD PTR __a$[ebp]
	mov	ecx, DWORD PTR __o$[ebp]
	mov	eax, DWORD PTR [eax+4]
	push	DWORD PTR [eax]
	call	?OncboxIsLink@motorTest1@@AAEXH@Z	; motorTest1::OncboxIsLink
$LN16@qt_static_:
; Line 120
	pop	ebp
	ret	0
$LN9@qt_static_:
; Line 110
	mov	ecx, DWORD PTR __o$[ebp]
; Line 120
	pop	ebp
; Line 110
	jmp	?OnSysTimerOut@motorTest1@@AAEXXZ	; motorTest1::OnSysTimerOut
$LN10@qt_static_:
; Line 111
	mov	ecx, DWORD PTR __o$[ebp]
; Line 120
	pop	ebp
; Line 111
	jmp	?OnSysTimer2Out@motorTest1@@AAEXXZ	; motorTest1::OnSysTimer2Out
$LN11@qt_static_:
; Line 112
	mov	ecx, DWORD PTR __o$[ebp]
; Line 120
	pop	ebp
; Line 112
	jmp	?OnbtnSetFilter@motorTest1@@AAEXXZ	; motorTest1::OnbtnSetFilter
$LN12@qt_static_:
; Line 113
	mov	ecx, DWORD PTR __o$[ebp]
; Line 120
	pop	ebp
; Line 113
	jmp	?OnbtnClearForce@motorTest1@@AAEXXZ	; motorTest1::OnbtnClearForce
$LN13@qt_static_:
; Line 114
	mov	ecx, DWORD PTR __o$[ebp]
; Line 120
	pop	ebp
; Line 114
	jmp	?OnbtnStartReadForce@motorTest1@@AAEXXZ	; motorTest1::OnbtnStartReadForce
$LN14@qt_static_:
; Line 115
	mov	ecx, DWORD PTR __o$[ebp]
; Line 120
	pop	ebp
; Line 115
	jmp	?OnbtnGoZeroMotor1@motorTest1@@AAEXXZ	; motorTest1::OnbtnGoZeroMotor1
$LN15@qt_static_:
; Line 116
	mov	ecx, DWORD PTR __o$[ebp]
; Line 120
	pop	ebp
; Line 116
	jmp	?OnbtnGoZeroMotor2@motorTest1@@AAEXXZ	; motorTest1::OnbtnGoZeroMotor2
$LN21@qt_static_:
; Line 120
	DD	$LN5@qt_static_
	DD	$LN6@qt_static_
	DD	$LN7@qt_static_
	DD	$LN8@qt_static_
	DD	$LN9@qt_static_
	DD	$LN10@qt_static_
	DD	$LN11@qt_static_
	DD	$LN12@qt_static_
	DD	$LN13@qt_static_
	DD	$LN14@qt_static_
	DD	$LN15@qt_static_
?qt_static_metacall@motorTest1@@CAXPAVQObject@@W4Call@QMetaObject@@HPAPAX@Z ENDP ; motorTest1::qt_static_metacall
_TEXT	ENDS
; Function compile flags: /Ogtp
;	COMDAT ?qt_metacall@motorTest1@@UAEHW4Call@QMetaObject@@HPAPAX@Z
_TEXT	SEGMENT
_this$1$ = -4						; size = 4
__c$ = 8						; size = 4
__id$ = 12						; size = 4
__a$ = 16						; size = 4
?qt_metacall@motorTest1@@UAEHW4Call@QMetaObject@@HPAPAX@Z PROC ; motorTest1::qt_metacall, COMDAT
; _this$ = ecx
; File e:\finalui_316latest_canuse_300ms_db_moreliandong\motortest1\generatedfiles\release\moc_motortest1.cpp
; Line 146
	push	ebp
	mov	ebp, esp
	push	ecx
	push	ebx
; Line 147
	mov	ebx, DWORD PTR __a$[ebp]
	mov	eax, ecx
	push	esi
	push	edi
	mov	edi, DWORD PTR __c$[ebp]
	push	ebx
	push	DWORD PTR __id$[ebp]
	mov	DWORD PTR _this$1$[ebp], eax
	push	edi
	call	DWORD PTR __imp_?qt_metacall@QMainWindow@@UAEHW4Call@QMetaObject@@HPAPAX@Z
	mov	esi, eax
; Line 148
	test	esi, esi
	js	SHORT $LN1@qt_metacal
; Line 150
	test	edi, edi
	jne	SHORT $LN3@qt_metacal
; Line 151
	cmp	esi, 11					; 0000000bH
	jge	SHORT $LN7@qt_metacal
; Line 152
	push	ebx
	push	esi
	push	edi
	push	DWORD PTR _this$1$[ebp]
	call	?qt_static_metacall@motorTest1@@CAXPAVQObject@@W4Call@QMetaObject@@HPAPAX@Z ; motorTest1::qt_static_metacall
	add	esp, 16					; 00000010H
; Line 157
	sub	esi, 11					; 0000000bH
; Line 159
	mov	eax, esi
	pop	edi
	pop	esi
	pop	ebx
; Line 160
	mov	esp, ebp
	pop	ebp
	ret	12					; 0000000cH
$LN3@qt_metacal:
; Line 154
	cmp	edi, 12					; 0000000cH
	jne	SHORT $LN6@qt_metacal
; Line 155
	cmp	esi, 11					; 0000000bH
	jge	SHORT $LN7@qt_metacal
; Line 156
	mov	eax, DWORD PTR [ebx]
	mov	DWORD PTR [eax], -1
$LN7@qt_metacal:
; Line 157
	sub	esi, 11					; 0000000bH
$LN6@qt_metacal:
; Line 159
	mov	eax, esi
$LN1@qt_metacal:
	pop	edi
	pop	esi
	pop	ebx
; Line 160
	mov	esp, ebp
	pop	ebp
	ret	12					; 0000000cH
?qt_metacall@motorTest1@@UAEHW4Call@QMetaObject@@HPAPAX@Z ENDP ; motorTest1::qt_metacall
_TEXT	ENDS
; Function compile flags: /Ogtp
;	COMDAT ?qt_metacast@motorTest1@@UAEPAXPBD@Z
_TEXT	SEGMENT
__clname$ = 8						; size = 4
?qt_metacast@motorTest1@@UAEPAXPBD@Z PROC		; motorTest1::qt_metacast, COMDAT
; _this$ = ecx
; File e:\finalui_316latest_canuse_300ms_db_moreliandong\motortest1\generatedfiles\release\moc_motortest1.cpp
; Line 138
	push	ebp
	mov	ebp, esp
	push	esi
; Line 139
	mov	esi, DWORD PTR __clname$[ebp]
	push	edi
	mov	edi, ecx
	test	esi, esi
	jne	SHORT $LN2@qt_metacas
	pop	edi
	xor	eax, eax
	pop	esi
; Line 143
	pop	ebp
	ret	4
$LN2@qt_metacas:
; Line 140
	mov	eax, OFFSET ?qt_meta_stringdata_motorTest1@@3Uqt_meta_stringdata_motorTest1_t@@B+208
	mov	ecx, esi
	npad	3
$LL5@qt_metacas:
	mov	dl, BYTE PTR [ecx]
	cmp	dl, BYTE PTR [eax]
	jne	SHORT $LN6@qt_metacas
	test	dl, dl
	je	SHORT $LN7@qt_metacas
	mov	dl, BYTE PTR [ecx+1]
	cmp	dl, BYTE PTR [eax+1]
	jne	SHORT $LN6@qt_metacas
	add	ecx, 2
	add	eax, 2
	test	dl, dl
	jne	SHORT $LL5@qt_metacas
$LN7@qt_metacas:
	xor	eax, eax
	jmp	SHORT $LN8@qt_metacas
$LN6@qt_metacas:
	sbb	eax, eax
	or	eax, 1
$LN8@qt_metacas:
	test	eax, eax
	jne	SHORT $LN3@qt_metacas
; Line 141
	mov	eax, edi
	pop	edi
	pop	esi
; Line 143
	pop	ebp
	ret	4
$LN3@qt_metacas:
; Line 142
	push	esi
	mov	ecx, edi
	call	DWORD PTR __imp_?qt_metacast@QMainWindow@@UAEPAXPBD@Z
	pop	edi
	pop	esi
; Line 143
	pop	ebp
	ret	4
?qt_metacast@motorTest1@@UAEPAXPBD@Z ENDP		; motorTest1::qt_metacast
_TEXT	ENDS
; Function compile flags: /Ogtp
;	COMDAT ?metaObject@motorTest1@@UBEPBUQMetaObject@@XZ
_TEXT	SEGMENT
?metaObject@motorTest1@@UBEPBUQMetaObject@@XZ PROC	; motorTest1::metaObject, COMDAT
; _this$ = ecx
; File e:\finalui_316latest_canuse_300ms_db_moreliandong\motortest1\generatedfiles\release\moc_motortest1.cpp
; Line 134
	mov	ecx, DWORD PTR [ecx+4]
	cmp	DWORD PTR [ecx+24], 0
	je	SHORT $LN3@metaObject
	jmp	DWORD PTR __imp_?dynamicMetaObject@QObjectData@@QBEPAUQMetaObject@@XZ
$LN3@metaObject:
	mov	eax, OFFSET ?staticMetaObject@motorTest1@@2UQMetaObject@@B ; motorTest1::staticMetaObject
; Line 135
	ret	0
?metaObject@motorTest1@@UBEPBUQMetaObject@@XZ ENDP	; motorTest1::metaObject
_TEXT	ENDS
; Function compile flags: /Ogtp
;	COMDAT ??C?$QScopedPointer@VQObjectData@@U?$QScopedPointerDeleter@VQObjectData@@@@@@QBEPAVQObjectData@@XZ
_TEXT	SEGMENT
??C?$QScopedPointer@VQObjectData@@U?$QScopedPointerDeleter@VQObjectData@@@@@@QBEPAVQObjectData@@XZ PROC ; QScopedPointer<QObjectData,QScopedPointerDeleter<QObjectData> >::operator->, COMDAT
; _this$ = ecx
; File d:\qtlatest\5.12.0\msvc2017\include\qtcore\qscopedpointer.h
; Line 118
	mov	eax, DWORD PTR [ecx]
; Line 119
	ret	0
??C?$QScopedPointer@VQObjectData@@U?$QScopedPointerDeleter@VQObjectData@@@@@@QBEPAVQObjectData@@XZ ENDP ; QScopedPointer<QObjectData,QScopedPointerDeleter<QObjectData> >::operator->
_TEXT	ENDS
END
